target datalayout = "e-m:e-p270:32:32-p271:32:32-p272:64:64-i64:64-i128:128-f80:128-n8:16:32:64-S128"
target triple = "x86_64-pc-linux-gnu"

@malloc_impl = internal global ptr @CRYPTO_malloc, align 8
@realloc_impl = internal global ptr @CRYPTO_realloc, align 8
@free_impl = internal global ptr @CRYPTO_free, align 8

; Function Attrs: nounwind uwtable
define void @CRYPTO_get_mem_functions(ptr noundef %0, ptr noundef %1, ptr noundef %2) #0 {
  %4 = alloca ptr, align 8
  %5 = alloca ptr, align 8
  %6 = alloca ptr, align 8
  store ptr %0, ptr %4, align 8, !tbaa !3
  store ptr %1, ptr %5, align 8, !tbaa !3
  store ptr %2, ptr %6, align 8, !tbaa !3
  %7 = load ptr, ptr %4, align 8, !tbaa !3
  %8 = icmp ne ptr %7, null
  br i1 %8, label %9, label %12

9:                                                ; preds = %3
  %10 = load ptr, ptr @malloc_impl, align 8, !tbaa !3
  %11 = load ptr, ptr %4, align 8, !tbaa !3
  store ptr %10, ptr %11, align 8, !tbaa !3
  br label %12

12:                                               ; preds = %9, %3
  %13 = load ptr, ptr %5, align 8, !tbaa !3
  %14 = icmp ne ptr %13, null
  br i1 %14, label %15, label %18

15:                                               ; preds = %12
  %16 = load ptr, ptr @realloc_impl, align 8, !tbaa !3
  %17 = load ptr, ptr %5, align 8, !tbaa !3
  store ptr %16, ptr %17, align 8, !tbaa !3
  br label %18

18:                                               ; preds = %15, %12
  %19 = load ptr, ptr %6, align 8, !tbaa !3
  %20 = icmp ne ptr %19, null
  br i1 %20, label %21, label %24

21:                                               ; preds = %18
  %22 = load ptr, ptr @free_impl, align 8, !tbaa !3
  %23 = load ptr, ptr %6, align 8, !tbaa !3
  store ptr %22, ptr %23, align 8, !tbaa !3
  br label %24

24:                                               ; preds = %21, %18
  ret void
}