; Function Attrs: mustprogress nofree norecurse nosync nounwind willreturn memory(read, argmem: write, inaccessiblemem: none) uwtable
define void @CRYPTO_get_mem_functions(ptr noundef writeonly captures(address_is_null) %0, ptr noundef writeonly captures(address_is_null) %1, ptr noundef writeonly captures(address_is_null) %2) local_unnamed_addr #1 {
  %.not = icmp eq ptr %0, null
  br i1 %.not, label %6, label %4

4:                                                ; preds = %3
  %5 = load ptr, ptr @malloc_impl, align 8, !tbaa !3
  store ptr %5, ptr %0, align 8, !tbaa !3
  br label %6

6:                                                ; preds = %4, %3
  %.not8 = icmp eq ptr %1, null
  br i1 %.not8, label %9, label %7

7:                                                ; preds = %6
  %8 = load ptr, ptr @realloc_impl, align 8, !tbaa !3
  store ptr %8, ptr %1, align 8, !tbaa !3
  br label %9

9:                                                ; preds = %7, %6
  %.not9 = icmp eq ptr %2, null
  br i1 %.not9, label %12, label %10

10:                                               ; preds = %9
  %11 = load ptr, ptr @free_impl, align 8, !tbaa !3
  store ptr %11, ptr %2, align 8, !tbaa !3
  br label %12

12:                                               ; preds = %10, %9
  ret void
}